; Function Attrs: mustprogress nounwind uwtable
define dso_local void @_ZN4node17TriggerNodeReportEPNS_11EnvironmentEPKcS3_RKNSt7__cxx1112basic_stringIcSt11char_traitsIcESaIcEEEN2v85LocalINSC_5ValueEEE(ptr noalias sret(%"class.std::__cxx11::basic_string") align 8 %agg.result, ptr noundef %env, ptr noundef %message, ptr noundef %trigger, ptr noundef nonnull align 8 dereferenceable(32) %name, ptr %error.coerce) local_unnamed_addr #3 {
entry:
  %cmp.not = icmp eq ptr %env, null
  br i1 %cmp.not, label %entry.split, label %cond.true

entry.split:                                      ; preds = %entry
  %coerce.val.pi4 = ptrtoint ptr %error.coerce to i64
  tail call void @_ZN4node17TriggerNodeReportEPN2v87IsolateEPNS_11EnvironmentEPKcS6_RKNSt7__cxx1112basic_stringIcSt11char_traitsIcESaIcEEENS0_5LocalINS0_5ValueEEE(ptr sret(%"class.std::__cxx11::basic_string") align 8 %agg.result, ptr noundef null, ptr noundef null, ptr noundef %message, ptr noundef %trigger, ptr noundef nonnull align 8 dereferenceable(32) %name, i64 %coerce.val.pi4)
  br label %cond.end

cond.true:                                        ; preds = %entry
  %isolate_.i = getelementptr inbounds i8, ptr %env, i64 88
  %0 = load ptr, ptr %isolate_.i, align 8
  %coerce.val.pi3 = ptrtoint ptr %error.coerce to i64
  tail call void @_ZN4node17TriggerNodeReportEPN2v87IsolateEPNS_11EnvironmentEPKcS6_RKNSt7__cxx1112basic_stringIcSt11char_traitsIcESaIcEEENS0_5LocalINS0_5ValueEEE(ptr sret(%"class.std::__cxx11::basic_string") align 8 %agg.result, ptr noundef %0, ptr noundef nonnull %env, ptr noundef %message, ptr noundef %trigger, ptr noundef nonnull align 8 dereferenceable(32) %name, i64 %coerce.val.pi3)
  br label %cond.end

cond.end:                                         ; preds = %entry.split, %cond.true
  ret void
}